; Function Attrs: nofree norecurse nosync nounwind memory(read, inaccessiblemem: none) uwtable
define zeroext range(i8 0, 2) i8 @l_Lean_Elab_Info_fmtHover_x3f_isAtomicFormat(ptr noundef %0) local_unnamed_addr #5 {
  br label %2

2:                                                ; preds = %.backedge, %1
  %.09 = phi ptr [ %0, %1 ], [ %.09.be, %.backedge ]
  %3 = ptrtoint ptr %.09 to i64
  %4 = and i64 %3, 1
  %.not.i = icmp eq i64 %4, 0
  br i1 %.not.i, label %8, label %5

5:                                                ; preds = %2
  %6 = lshr i64 %3, 1
  %7 = trunc i64 %6 to i32
  br label %lean_obj_tag.exit

8:                                                ; preds = %2
  %9 = getelementptr i8, ptr %.09, i64 4
  %.val.i = load i32, ptr %9, align 4
  %10 = lshr i32 %.val.i, 24
  br label %lean_obj_tag.exit

lean_obj_tag.exit:                                ; preds = %5, %8
  %.0.i = phi i32 [ %7, %5 ], [ %10, %8 ]
  switch i32 %.0.i, label %.loopexit [
    i32 3, label %.loopexit.loopexit
    i32 4, label %11
    i32 6, label %.backedge
    i32 7, label %11
  ]

11:                                               ; preds = %lean_obj_tag.exit, %lean_obj_tag.exit
  br label %.backedge

.backedge:                                        ; preds = %lean_obj_tag.exit, %11
  %.sink = phi i64 [ 16, %11 ], [ 8, %lean_obj_tag.exit ]
  %12 = getelementptr inbounds nuw i8, ptr %.09, i64 %.sink
  %.09.be = load ptr, ptr %12, align 8, !tbaa !9
  br label %2

.loopexit.loopexit:                               ; preds = %lean_obj_tag.exit
  br label %.loopexit

.loopexit:                                        ; preds = %lean_obj_tag.exit, %.loopexit.loopexit
  %.0 = phi i8 [ 1, %.loopexit.loopexit ], [ 0, %lean_obj_tag.exit ]
  ret i8 %.0
}